target datalayout = "e-m:e-p270:32:32-p271:32:32-p272:64:64-i64:64-i128:128-f80:128-n8:16:32:64-S128"
target triple = "x86_64-pc-linux-gnu"

@.str.118 = private unnamed_addr constant [6 x i8] c"UTF-8\00", align 1
@.str.119 = private unnamed_addr constant [11 x i8] c"ISO-8859-1\00", align 1
@.str.120 = private unnamed_addr constant [6 x i8] c"BIG-5\00", align 1
@.str.121 = private unnamed_addr constant [30 x i8] c"Unsupported charset value %d\0A\00", align 1

; Function Attrs: nounwind uwtable
define ptr @charsetToStr(i32 noundef %0) #0 {
  %2 = alloca i32, align 4
  %3 = alloca ptr, align 8
  store i32 %0, ptr %2, align 4, !tbaa !8
  call void @llvm.lifetime.start.p0(i64 8, ptr %3) #16
  %4 = load i32, ptr %2, align 4, !tbaa !8
  switch i32 %4, label %8 [
    i32 0, label %5
    i32 1, label %6
    i32 2, label %7
  ]

5:                                                ; preds = %1
  store ptr @.str.118, ptr %3, align 8, !tbaa !3
  br label %10

6:                                                ; preds = %1
  store ptr @.str.119, ptr %3, align 8, !tbaa !3
  br label %10

7:                                                ; preds = %1
  store ptr @.str.120, ptr %3, align 8, !tbaa !3
  br label %10

8:                                                ; preds = %1
  %9 = load i32, ptr %2, align 4, !tbaa !8
  call void (ptr, ...) @agerrorf(ptr noundef @.str.121, i32 noundef %9)
  store ptr @.str.118, ptr %3, align 8, !tbaa !3
  br label %10

10:                                               ; preds = %8, %7, %6, %5
  %11 = load ptr, ptr %3, align 8, !tbaa !3
  call void @llvm.lifetime.end.p0(i64 8, ptr %3) #16
  ret ptr %11
}