; Function Attrs: nounwind uwtable
define noundef nonnull ptr @charsetToStr(i32 noundef %0) local_unnamed_addr #4 {
  %2 = icmp ult i32 %0, 3
  br i1 %2, label %switch.lookup, label %3

3:                                                ; preds = %1
  tail call void (ptr, ...) @agerrorf(ptr noundef nonnull @.str.121, i32 noundef %0) #24
  br label %5

switch.lookup:                                    ; preds = %1
  %4 = zext nneg i32 %0 to i64
  %switch.gep = getelementptr inbounds nuw [3 x ptr], ptr @switch.table.charsetToStr, i64 0, i64 %4
  %switch.load = load ptr, ptr %switch.gep, align 8
  br label %5

5:                                                ; preds = %switch.lookup, %3
  %.0 = phi ptr [ @.str.118, %3 ], [ %switch.load, %switch.lookup ]
  ret ptr %.0
}